target datalayout = "e-m:e-p270:32:32-p271:32:32-p272:64:64-i64:64-i128:128-f80:128-n8:16:32:64-S128"
target triple = "x86_64-pc-linux-gnu"

%"class.llvm::SmallVectorImpl.75" = type { %"class.llvm::SmallVectorTemplateBase.76" }
%"class.llvm::SmallVectorTemplateBase.76" = type { %"class.llvm::SmallVectorTemplateCommon.77" }
%"class.llvm::SmallVectorTemplateCommon.77" = type { %"class.llvm::SmallVectorBase.78" }
%"class.llvm::SmallVectorBase.78" = type { ptr, i64, i64 }
%"class.llvm::StringRef" = type { ptr, i64 }
%"class.llvm::ArrayRef.210" = type { ptr, i64 }
%"struct.llvm::support::detail::packed_endian_specific_integral" = type { %struct.anon.211 }
%struct.anon.211 = type { [2 x i8] }
%"class.llvm::SmallString.214" = type { %"class.llvm::SmallVector.base.217", [4 x i8] }
%"class.llvm::SmallVector.base.217" = type <{ %"class.llvm::SmallVectorImpl.75", %"struct.llvm::SmallVectorStorage.216" }>
%"struct.llvm::SmallVectorStorage.216" = type { [20 x i8] }
%"struct.llvm::codeview::DefRangeRegisterHeader" = type { %"struct.llvm::support::detail::packed_endian_specific_integral", %"struct.llvm::support::detail::packed_endian_specific_integral" }

; Function Attrs: mustprogress nounwind uwtable
define linkonce_odr hidden noundef zeroext i16 @_ZN4llvm8byteswapItvEET_S1_(i16 noundef zeroext %0) #0 comdat {
  %2 = alloca i16, align 2
  %3 = alloca i16, align 2
  %4 = alloca i16, align 2
  %5 = alloca i16, align 2
  store i16 %0, ptr %2, align 2
  %6 = load i16, ptr %2, align 2
  store i16 %6, ptr %3, align 2
  %7 = load i16, ptr %3, align 2
  %8 = zext i16 %7 to i32
  %9 = shl i32 %8, 8
  %10 = trunc i32 %9 to i16
  store i16 %10, ptr %4, align 2
  %11 = load i16, ptr %3, align 2
  %12 = zext i16 %11 to i32
  %13 = ashr i32 %12, 8
  %14 = trunc i32 %13 to i16
  store i16 %14, ptr %5, align 2
  %15 = load i16, ptr %4, align 2
  %16 = zext i16 %15 to i32
  %17 = load i16, ptr %5, align 2
  %18 = zext i16 %17 to i32
  %19 = or i32 %16, %18
  %20 = trunc i32 %19 to i16
  ret i16 %20
}

; Function Attrs: mustprogress nounwind uwtable
define linkonce_odr hidden noundef zeroext i16 @_ZN4llvm3sys15getSwappedBytesEt(i16 noundef zeroext %0) #0 comdat {
  %2 = alloca i16, align 2
  store i16 %0, ptr %2, align 2
  %3 = load i16, ptr %2, align 2
  %4 = call noundef zeroext i16 @_ZN4llvm8byteswapItvEET_S1_(i16 noundef zeroext %3) #12
  ret i16 %4
}

; Function Attrs: mustprogress nounwind uwtable
define linkonce_odr hidden void @_ZN4llvm3sys13swapByteOrderItEEvRT_(ptr noundef nonnull align 2 dereferenceable(2) %0) #0 comdat {
  %2 = alloca ptr, align 8
  store ptr %0, ptr %2, align 8
  %3 = load ptr, ptr %2, align 8
  %4 = load i16, ptr %3, align 2
  %5 = call noundef zeroext i16 @_ZN4llvm3sys15getSwappedBytesEt(i16 noundef zeroext %4)
  %6 = load ptr, ptr %2, align 8
  store i16 %5, ptr %6, align 2
  ret void
}

; Function Attrs: mustprogress nounwind uwtable
define linkonce_odr hidden noundef zeroext i16 @_ZN4llvm7support6endian9byte_swapItEET_S3_NS_10endiannessE(i16 noundef zeroext %0, i32 noundef %1) #0 comdat {
  %3 = alloca i16, align 2
  %4 = alloca i32, align 4
  store i16 %0, ptr %3, align 2
  store i32 %1, ptr %4, align 4
  %5 = load i32, ptr %4, align 4
  %6 = icmp ne i32 %5, 1
  br i1 %6, label %7, label %8

7:                                                ; preds = %2
  call void @_ZN4llvm3sys13swapByteOrderItEEvRT_(ptr noundef nonnull align 2 dereferenceable(2) %3)
  br label %8

8:                                                ; preds = %7, %2
  %9 = load i16, ptr %3, align 2
  ret i16 %9
}

; Function Attrs: mustprogress nounwind uwtable
define linkonce_odr hidden noundef ptr @_ZNK4llvm25SmallVectorTemplateCommonIcvE10getFirstElEv(ptr noundef nonnull align 8 dereferenceable(24) %0) #0 comdat align 2 {
  %2 = alloca ptr, align 8
  store ptr %0, ptr %2, align 8
  %3 = load ptr, ptr %2, align 8
  %4 = getelementptr inbounds i8, ptr %3, i64 24
  ret ptr %4
}

; Function Attrs: mustprogress nounwind uwtable
define linkonce_odr hidden void @_ZN4llvm7support6endian5writeItLm1EEEvPvT_NS_10endiannessE(ptr noundef %0, i16 noundef zeroext %1, i32 noundef %2) #0 comdat {
  %4 = alloca ptr, align 8
  %5 = alloca i16, align 2
  %6 = alloca i32, align 4
  store ptr %0, ptr %4, align 8
  store i16 %1, ptr %5, align 2
  store i32 %2, ptr %6, align 4
  %7 = load i16, ptr %5, align 2
  %8 = load i32, ptr %6, align 4
  %9 = call noundef zeroext i16 @_ZN4llvm7support6endian9byte_swapItEET_S3_NS_10endiannessE(i16 noundef zeroext %7, i32 noundef %8)
  store i16 %9, ptr %5, align 2
  %10 = load ptr, ptr %4, align 8
  call void @llvm.assume(i1 true) [ "align"(ptr %10, i64 1) ]
  call void @llvm.memcpy.p0.p0.i64(ptr align 1 %10, ptr align 2 %5, i64 2, i1 false)
  ret void
}

; Function Attrs: mustprogress nounwind uwtable
define linkonce_odr hidden void @_ZN4llvm25SmallVectorTemplateCommonIcvEC2Em(ptr noundef nonnull align 8 dereferenceable(24) %0, i64 noundef %1) unnamed_addr #0 comdat align 2 {
  %3 = alloca ptr, align 8
  %4 = alloca i64, align 8
  store ptr %0, ptr %3, align 8
  store i64 %1, ptr %4, align 8
  %5 = load ptr, ptr %3, align 8
  %6 = call noundef ptr @_ZNK4llvm25SmallVectorTemplateCommonIcvE10getFirstElEv(ptr noundef nonnull align 8 dereferenceable(24) %5)
  %7 = load i64, ptr %4, align 8
  call void @_ZN4llvm15SmallVectorBaseImEC2EPvm(ptr noundef nonnull align 8 dereferenceable(24) %5, ptr noundef %6, i64 noundef %7)
  ret void
}

; Function Attrs: mustprogress nounwind uwtable
define linkonce_odr hidden noundef zeroext i1 @_ZNK4llvm25SmallVectorTemplateCommonIcvE7isSmallEv(ptr noundef nonnull align 8 dereferenceable(24) %0) #0 comdat align 2 {
  %2 = alloca ptr, align 8
  store ptr %0, ptr %2, align 8
  %3 = load ptr, ptr %2, align 8
  %4 = getelementptr inbounds nuw %"class.llvm::SmallVectorBase.78", ptr %3, i32 0, i32 0
  %5 = load ptr, ptr %4, align 8
  %6 = call noundef ptr @_ZNK4llvm25SmallVectorTemplateCommonIcvE10getFirstElEv(ptr noundef nonnull align 8 dereferenceable(24) %3)
  %7 = icmp eq ptr %5, %6
  ret i1 %7
}

; Function Attrs: mustprogress nounwind uwtable
define linkonce_odr hidden noundef ptr @_ZNK4llvm25SmallVectorTemplateCommonIcvE5beginEv(ptr noundef nonnull align 8 dereferenceable(24) %0) #0 comdat align 2 {
  %2 = alloca ptr, align 8
  store ptr %0, ptr %2, align 8
  %3 = load ptr, ptr %2, align 8
  %4 = getelementptr inbounds nuw %"class.llvm::SmallVectorBase.78", ptr %3, i32 0, i32 0
  %5 = load ptr, ptr %4, align 8
  ret ptr %5
}

; Function Attrs: mustprogress nounwind uwtable
define linkonce_odr hidden void @_ZN4llvm7support6endian5writeItLNS_10endiannessE1ELm1EEEvPvT_(ptr noundef %0, i16 noundef zeroext %1) #0 comdat {
  %3 = alloca ptr, align 8
  %4 = alloca i16, align 2
  store ptr %0, ptr %3, align 8
  store i16 %1, ptr %4, align 2
  %5 = load ptr, ptr %3, align 8
  %6 = load i16, ptr %4, align 2
  call void @_ZN4llvm7support6endian5writeItLm1EEEvPvT_NS_10endiannessE(ptr noundef %5, i16 noundef zeroext %6, i32 noundef 1)
  ret void
}

; Function Attrs: mustprogress nounwind uwtable
define linkonce_odr hidden void @_ZN4llvm23SmallVectorTemplateBaseIcLb1EEC2Em(ptr noundef nonnull align 8 dereferenceable(24) %0, i64 noundef %1) unnamed_addr #0 comdat align 2 {
  %3 = alloca ptr, align 8
  %4 = alloca i64, align 8
  store ptr %0, ptr %3, align 8
  store i64 %1, ptr %4, align 8
  %5 = load ptr, ptr %3, align 8
  %6 = load i64, ptr %4, align 8
  call void @_ZN4llvm25SmallVectorTemplateCommonIcvEC2Em(ptr noundef nonnull align 8 dereferenceable(24) %5, i64 noundef %6)
  ret void
}

; Function Attrs: mustprogress nounwind uwtable
define linkonce_odr hidden void @_ZN4llvm15SmallVectorImplIcED2Ev(ptr noundef nonnull align 8 dereferenceable(24) %0) unnamed_addr #0 comdat align 2 {
  %2 = alloca ptr, align 8
  store ptr %0, ptr %2, align 8
  %3 = load ptr, ptr %2, align 8
  %4 = call noundef zeroext i1 @_ZNK4llvm25SmallVectorTemplateCommonIcvE7isSmallEv(ptr noundef nonnull align 8 dereferenceable(24) %3)
  br i1 %4, label %7, label %5

5:                                                ; preds = %1
  %6 = call noundef ptr @_ZN4llvm25SmallVectorTemplateCommonIcvE5beginEv(ptr noundef nonnull align 8 dereferenceable(24) %3)
  call void @free(ptr noundef %6) #12
  br label %7

7:                                                ; preds = %5, %1
  ret void
}

; Function Attrs: mustprogress nounwind uwtable
define linkonce_odr hidden void @_ZN4llvm23SmallVectorTemplateBaseIcLb1EE13destroy_rangeEPcS2_(ptr noundef %0, ptr noundef %1) #0 comdat align 2 {
  %3 = alloca ptr, align 8
  %4 = alloca ptr, align 8
  store ptr %0, ptr %3, align 8
  store ptr %1, ptr %4, align 8
  ret void
}

; Function Attrs: mustprogress nounwind uwtable
define linkonce_odr hidden noundef ptr @_ZN4llvm25SmallVectorTemplateCommonIcvE3endEv(ptr noundef nonnull align 8 dereferenceable(24) %0) #0 comdat align 2 {
  %2 = alloca ptr, align 8
  store ptr %0, ptr %2, align 8
  %3 = load ptr, ptr %2, align 8
  %4 = call noundef ptr @_ZN4llvm25SmallVectorTemplateCommonIcvE5beginEv(ptr noundef nonnull align 8 dereferenceable(24) %3)
  %5 = call noundef i64 @_ZNK4llvm15SmallVectorBaseImE4sizeEv(ptr noundef nonnull align 8 dereferenceable(24) %3)
  %6 = getelementptr inbounds i8, ptr %4, i64 %5
  ret ptr %6
}

; Function Attrs: mustprogress nounwind uwtable
define linkonce_odr hidden void @_ZN4llvm9StringRefC2EPKcm(ptr noundef nonnull align 8 dereferenceable(16) %0, ptr noundef %1, i64 noundef %2) unnamed_addr #0 comdat align 2 {
  %4 = alloca ptr, align 8
  %5 = alloca ptr, align 8
  %6 = alloca i64, align 8
  store ptr %0, ptr %4, align 8
  store ptr %1, ptr %5, align 8
  store i64 %2, ptr %6, align 8
  %7 = load ptr, ptr %4, align 8
  %8 = getelementptr inbounds nuw %"class.llvm::StringRef", ptr %7, i32 0, i32 0
  %9 = load ptr, ptr %5, align 8
  store ptr %9, ptr %8, align 8
  %10 = getelementptr inbounds nuw %"class.llvm::StringRef", ptr %7, i32 0, i32 1
  %11 = load i64, ptr %6, align 8
  store i64 %11, ptr %10, align 8
  ret void
}

; Function Attrs: mustprogress nounwind uwtable
define linkonce_odr hidden noundef ptr @_ZNK4llvm25SmallVectorTemplateCommonIcvE4dataEv(ptr noundef nonnull align 8 dereferenceable(24) %0) #0 comdat align 2 {
  %2 = alloca ptr, align 8
  store ptr %0, ptr %2, align 8
  %3 = load ptr, ptr %2, align 8
  %4 = call noundef ptr @_ZNK4llvm25SmallVectorTemplateCommonIcvE5beginEv(ptr noundef nonnull align 8 dereferenceable(24) %3)
  ret ptr %4
}

; Function Attrs: mustprogress nounwind uwtable
define linkonce_odr hidden noundef ptr @_ZN4llvm25SmallVectorTemplateCommonIcvE5beginEv(ptr noundef nonnull align 8 dereferenceable(24) %0) #0 comdat align 2 {
  %2 = alloca ptr, align 8
  store ptr %0, ptr %2, align 8
  %3 = load ptr, ptr %2, align 8
  %4 = getelementptr inbounds nuw %"class.llvm::SmallVectorBase.78", ptr %3, i32 0, i32 0
  %5 = load ptr, ptr %4, align 8
  ret ptr %5
}

; Function Attrs: mustprogress nounwind uwtable
define linkonce_odr hidden void @_ZN4llvm7support6detail31packed_endian_specific_integralItLNS_10endiannessE1ELm1ELm1EEaSEt(ptr noundef nonnull align 1 dereferenceable(2) %0, i16 noundef zeroext %1) #0 comdat align 2 {
  %3 = alloca ptr, align 8
  %4 = alloca i16, align 2
  store ptr %0, ptr %3, align 8
  store i16 %1, ptr %4, align 2
  %5 = load ptr, ptr %3, align 8
  %6 = getelementptr inbounds nuw %"struct.llvm::support::detail::packed_endian_specific_integral", ptr %5, i32 0, i32 0
  %7 = getelementptr inbounds nuw %struct.anon.211, ptr %6, i32 0, i32 0
  %8 = getelementptr inbounds [2 x i8], ptr %7, i64 0, i64 0
  %9 = load i16, ptr %4, align 2
  call void @_ZN4llvm7support6endian5writeItLNS_10endiannessE1ELm1EEEvPvT_(ptr noundef %8, i16 noundef zeroext %9)
  ret void
}

; Function Attrs: mustprogress nounwind uwtable
define linkonce_odr hidden void @_ZN4llvm15SmallVectorImplIcEC2Ej(ptr noundef nonnull align 8 dereferenceable(24) %0, i32 noundef %1) unnamed_addr #0 comdat align 2 {
  %3 = alloca ptr, align 8
  %4 = alloca i32, align 4
  store ptr %0, ptr %3, align 8
  store i32 %1, ptr %4, align 4
  %5 = load ptr, ptr %3, align 8
  %6 = load i32, ptr %4, align 4
  %7 = zext i32 %6 to i64
  call void @_ZN4llvm23SmallVectorTemplateBaseIcLb1EEC2Em(ptr noundef nonnull align 8 dereferenceable(24) %5, i64 noundef %7)
  ret void
}

; Function Attrs: mustprogress nounwind uwtable
define linkonce_odr hidden void @_ZN4llvm11SmallVectorIcLj20EED2Ev(ptr noundef nonnull align 8 dereferenceable(44) %0) unnamed_addr #0 comdat align 2 {
  %2 = alloca ptr, align 8
  store ptr %0, ptr %2, align 8
  %3 = load ptr, ptr %2, align 8
  %4 = call noundef ptr @_ZN4llvm25SmallVectorTemplateCommonIcvE5beginEv(ptr noundef nonnull align 8 dereferenceable(24) %3)
  %5 = call noundef ptr @_ZN4llvm25SmallVectorTemplateCommonIcvE3endEv(ptr noundef nonnull align 8 dereferenceable(24) %3)
  call void @_ZN4llvm23SmallVectorTemplateBaseIcLb1EE13destroy_rangeEPcS2_(ptr noundef %4, ptr noundef %5)
  call void @_ZN4llvm15SmallVectorImplIcED2Ev(ptr noundef nonnull align 8 dereferenceable(24) %3) #12
  ret void
}

; Function Attrs: mustprogress nounwind uwtable
define linkonce_odr hidden { ptr, i64 } @_ZNK4llvm11SmallStringILj20EE3strEv(ptr noundef nonnull align 8 dereferenceable(44) %0) #0 comdat align 2 {
  %2 = alloca %"class.llvm::StringRef", align 8
  %3 = alloca ptr, align 8
  store ptr %0, ptr %3, align 8
  %4 = load ptr, ptr %3, align 8
  %5 = call noundef ptr @_ZNK4llvm25SmallVectorTemplateCommonIcvE4dataEv(ptr noundef nonnull align 8 dereferenceable(24) %4)
  %6 = call noundef i64 @_ZNK4llvm15SmallVectorBaseImE4sizeEv(ptr noundef nonnull align 8 dereferenceable(24) %4)
  call void @_ZN4llvm9StringRefC2EPKcm(ptr noundef nonnull align 8 dereferenceable(16) %2, ptr noundef %5, i64 noundef %6)
  %7 = load { ptr, i64 }, ptr %2, align 8
  ret { ptr, i64 } %7
}

; Function Attrs: mustprogress nounwind uwtable
define linkonce_odr hidden noundef nonnull align 1 dereferenceable(1) ptr @_ZN4llvm25SmallVectorTemplateCommonIcvEixEm(ptr noundef nonnull align 8 dereferenceable(24) %0, i64 noundef %1) #0 comdat align 2 {
  %3 = alloca ptr, align 8
  %4 = alloca i64, align 8
  store ptr %0, ptr %3, align 8
  store i64 %1, ptr %4, align 8
  %5 = load ptr, ptr %3, align 8
  %6 = call noundef ptr @_ZN4llvm25SmallVectorTemplateCommonIcvE5beginEv(ptr noundef nonnull align 8 dereferenceable(24) %5)
  %7 = load i64, ptr %4, align 8
  %8 = getelementptr inbounds i8, ptr %6, i64 %7
  ret ptr %8
}

; Function Attrs: mustprogress nounwind uwtable
define linkonce_odr hidden void @_ZN4llvm7support6detail31packed_endian_specific_integralItLNS_10endiannessE1ELm1ELm1EEC2Et(ptr noundef nonnull align 1 dereferenceable(2) %0, i16 noundef zeroext %1) unnamed_addr #0 comdat align 2 {
  %3 = alloca ptr, align 8
  %4 = alloca i16, align 2
  store ptr %0, ptr %3, align 8
  store i16 %1, ptr %4, align 2
  %5 = load ptr, ptr %3, align 8
  %6 = load i16, ptr %4, align 2
  call void @_ZN4llvm7support6detail31packed_endian_specific_integralItLNS_10endiannessE1ELm1ELm1EEaSEt(ptr noundef nonnull align 1 dereferenceable(2) %5, i16 noundef zeroext %6)
  ret void
}

; Function Attrs: mustprogress nounwind uwtable
define linkonce_odr hidden void @_ZN4llvm15SmallVectorImplIcE6resizeEm(ptr noundef nonnull align 8 dereferenceable(24) %0, i64 noundef %1) #0 comdat align 2 {
  %3 = alloca ptr, align 8
  %4 = alloca i64, align 8
  store ptr %0, ptr %3, align 8
  store i64 %1, ptr %4, align 8
  %5 = load ptr, ptr %3, align 8
  %6 = load i64, ptr %4, align 8
  call void @_ZN4llvm15SmallVectorImplIcE10resizeImplILb0EEEvm(ptr noundef nonnull align 8 dereferenceable(24) %5, i64 noundef %6)
  ret void
}

; Function Attrs: mustprogress nounwind uwtable
define linkonce_odr hidden void @_ZN4llvm11SmallVectorIcLj20EEC2Ev(ptr noundef nonnull align 8 dereferenceable(44) %0) unnamed_addr #0 comdat align 2 {
  %2 = alloca ptr, align 8
  store ptr %0, ptr %2, align 8
  %3 = load ptr, ptr %2, align 8
  call void @_ZN4llvm15SmallVectorImplIcEC2Ej(ptr noundef nonnull align 8 dereferenceable(24) %3, i32 noundef 20)
  ret void
}

; Function Attrs: mustprogress nounwind uwtable
define linkonce_odr hidden void @_ZN4llvm11SmallStringILj20EED2Ev(ptr noundef nonnull align 8 dereferenceable(44) %0) unnamed_addr #0 comdat align 2 {
  %2 = alloca ptr, align 8
  store ptr %0, ptr %2, align 8
  %3 = load ptr, ptr %2, align 8
  call void @_ZN4llvm11SmallVectorIcLj20EED2Ev(ptr noundef nonnull align 8 dereferenceable(44) %3) #12
  ret void
}

; Function Attrs: mustprogress nounwind uwtable
define linkonce_odr hidden { ptr, i64 } @_ZNK4llvm11SmallStringILj20EEcvNS_9StringRefEEv(ptr noundef nonnull align 8 dereferenceable(44) %0) #0 comdat align 2 {
  %2 = alloca %"class.llvm::StringRef", align 8
  %3 = alloca ptr, align 8
  store ptr %0, ptr %3, align 8
  %4 = load ptr, ptr %3, align 8
  %5 = call { ptr, i64 } @_ZNK4llvm11SmallStringILj20EE3strEv(ptr noundef nonnull align 8 dereferenceable(44) %4)
  %6 = getelementptr inbounds nuw { ptr, i64 }, ptr %2, i32 0, i32 0
  %7 = extractvalue { ptr, i64 } %5, 0
  store ptr %7, ptr %6, align 8
  %8 = getelementptr inbounds nuw { ptr, i64 }, ptr %2, i32 0, i32 1
  %9 = extractvalue { ptr, i64 } %5, 1
  store i64 %9, ptr %8, align 8
  %10 = load { ptr, i64 }, ptr %2, align 8
  ret { ptr, i64 } %10
}

; Function Attrs: mustprogress nounwind uwtable
define internal void @_ZL20copyBytesForDefRangeIN4llvm8codeview22DefRangeRegisterHeaderEEvRNS0_11SmallStringILj20EEENS1_10SymbolKindERKT_(ptr noundef nonnull align 8 dereferenceable(44) %0, i16 noundef zeroext %1, ptr noundef nonnull align 1 dereferenceable(4) %2) #0 {
  %4 = alloca ptr, align 8
  %5 = alloca i16, align 2
  %6 = alloca ptr, align 8
  %7 = alloca %"struct.llvm::support::detail::packed_endian_specific_integral", align 1
  store ptr %0, ptr %4, align 8
  store i16 %1, ptr %5, align 2
  store ptr %2, ptr %6, align 8
  %8 = load ptr, ptr %4, align 8
  call void @_ZN4llvm15SmallVectorImplIcE6resizeEm(ptr noundef nonnull align 8 dereferenceable(24) %8, i64 noundef 6)
  %9 = load i16, ptr %5, align 2
  call void @_ZN4llvm7support6detail31packed_endian_specific_integralItLNS_10endiannessE1ELm1ELm1EEC2Et(ptr noundef nonnull align 1 dereferenceable(2) %7, i16 noundef zeroext %9)
  %10 = load ptr, ptr %4, align 8
  %11 = call noundef nonnull align 1 dereferenceable(1) ptr @_ZN4llvm25SmallVectorTemplateCommonIcvEixEm(ptr noundef nonnull align 8 dereferenceable(24) %10, i64 noundef 0)
  call void @llvm.memcpy.p0.p0.i64(ptr align 1 %11, ptr align 1 %7, i64 2, i1 false)
  %12 = load ptr, ptr %4, align 8
  %13 = call noundef nonnull align 1 dereferenceable(1) ptr @_ZN4llvm25SmallVectorTemplateCommonIcvEixEm(ptr noundef nonnull align 8 dereferenceable(24) %12, i64 noundef 2)
  %14 = load ptr, ptr %6, align 8
  call void @llvm.memcpy.p0.p0.i64(ptr align 1 %13, ptr align 1 %14, i64 4, i1 false)
  ret void
}

; Function Attrs: mustprogress nounwind uwtable
define linkonce_odr hidden void @_ZN4llvm11SmallStringILj20EEC2Ev(ptr noundef nonnull align 8 dereferenceable(44) %0) unnamed_addr #0 comdat align 2 {
  %2 = alloca ptr, align 8
  store ptr %0, ptr %2, align 8
  %3 = load ptr, ptr %2, align 8
  call void @_ZN4llvm11SmallVectorIcLj20EEC2Ev(ptr noundef nonnull align 8 dereferenceable(44) %3)
  ret void
}

; Function Attrs: mustprogress nounwind uwtable
define dso_local void @_ZN4llvm10MCStreamer23emitCVDefRangeDirectiveENS_8ArrayRefISt4pairIPKNS_8MCSymbolES5_EEENS_8codeview22DefRangeRegisterHeaderE(ptr noundef nonnull align 8 dereferenceable(288) %0, ptr %1, i64 %2, i32 %3) unnamed_addr #0 align 2 {
  %5 = alloca %"class.llvm::ArrayRef.210", align 8
  %6 = alloca %"struct.llvm::codeview::DefRangeRegisterHeader", align 1
  %7 = alloca ptr, align 8
  %8 = alloca %"class.llvm::SmallString.214", align 8
  %9 = alloca %"class.llvm::ArrayRef.210", align 8
  %10 = alloca %"class.llvm::StringRef", align 8
  %11 = getelementptr inbounds nuw { ptr, i64 }, ptr %5, i32 0, i32 0
  store ptr %1, ptr %11, align 8
  %12 = getelementptr inbounds nuw { ptr, i64 }, ptr %5, i32 0, i32 1
  store i64 %2, ptr %12, align 8
  store i32 %3, ptr %6, align 1
  store ptr %0, ptr %7, align 8
  %13 = load ptr, ptr %7, align 8
  call void @_ZN4llvm11SmallStringILj20EEC2Ev(ptr noundef nonnull align 8 dereferenceable(44) %8)
  call void @_ZL20copyBytesForDefRangeIN4llvm8codeview22DefRangeRegisterHeaderEEvRNS0_11SmallStringILj20EEENS1_10SymbolKindERKT_(ptr noundef nonnull align 8 dereferenceable(44) %8, i16 noundef zeroext 4417, ptr noundef nonnull align 1 dereferenceable(4) %6)
  call void @llvm.memcpy.p0.p0.i64(ptr align 8 %9, ptr align 8 %5, i64 16, i1 false)
  %14 = call { ptr, i64 } @_ZNK4llvm11SmallStringILj20EEcvNS_9StringRefEEv(ptr noundef nonnull align 8 dereferenceable(44) %8)
  %15 = getelementptr inbounds nuw { ptr, i64 }, ptr %10, i32 0, i32 0
  %16 = extractvalue { ptr, i64 } %14, 0
  store ptr %16, ptr %15, align 8
  %17 = getelementptr inbounds nuw { ptr, i64 }, ptr %10, i32 0, i32 1
  %18 = extractvalue { ptr, i64 } %14, 1
  store i64 %18, ptr %17, align 8
  %19 = getelementptr inbounds nuw { ptr, i64 }, ptr %9, i32 0, i32 0
  %20 = load ptr, ptr %19, align 8
  %21 = getelementptr inbounds nuw { ptr, i64 }, ptr %9, i32 0, i32 1
  %22 = load i64, ptr %21, align 8
  %23 = getelementptr inbounds nuw { ptr, i64 }, ptr %10, i32 0, i32 0
  %24 = load ptr, ptr %23, align 8
  %25 = getelementptr inbounds nuw { ptr, i64 }, ptr %10, i32 0, i32 1
  %26 = load i64, ptr %25, align 8
  %27 = load ptr, ptr %13, align 8
  %28 = getelementptr inbounds ptr, ptr %27, i64 97
  %29 = load ptr, ptr %28, align 8
  call void %29(ptr noundef nonnull align 8 dereferenceable(288) %13, ptr %20, i64 %22, ptr %24, i64 %26)
  call void @_ZN4llvm11SmallStringILj20EED2Ev(ptr noundef nonnull align 8 dereferenceable(44) %8) #12
  ret void
}