; Function Attrs: mustprogress nounwind uwtable
define dso_local void @_ZN4llvm10MCStreamer23emitCVDefRangeDirectiveENS_8ArrayRefISt4pairIPKNS_8MCSymbolES5_EEENS_8codeview22DefRangeRegisterHeaderE(ptr noundef nonnull align 8 dereferenceable(288) %0, ptr %1, i64 %2, i32 %3) unnamed_addr #0 align 2 {
  %5 = alloca %"class.llvm::SmallString.214", align 8
  %6 = getelementptr inbounds i8, ptr %5, i64 24
  call void @_ZN4llvm15SmallVectorBaseImEC2EPvm(ptr noundef nonnull align 8 dereferenceable(24) %5, ptr noundef nonnull %6, i64 noundef 20) #23
  call void @_ZN4llvm15SmallVectorImplIcE10resizeImplILb0EEEvm(ptr noundef nonnull align 8 dereferenceable(24) %5, i64 noundef 6)
  %7 = load ptr, ptr %5, align 8
  store i16 4417, ptr %7, align 1
  %8 = load ptr, ptr %5, align 8
  %9 = getelementptr inbounds i8, ptr %8, i64 2
  store i32 %3, ptr %9, align 1
  %10 = load ptr, ptr %5, align 8
  %11 = call noundef i64 @_ZNK4llvm15SmallVectorBaseImE4sizeEv(ptr noundef nonnull align 8 dereferenceable(24) %5) #23
  %12 = load ptr, ptr %0, align 8
  %13 = getelementptr inbounds i8, ptr %12, i64 776
  %14 = load ptr, ptr %13, align 8
  call void %14(ptr noundef nonnull align 8 dereferenceable(288) %0, ptr %1, i64 %2, ptr %10, i64 %11) #23
  %15 = call noundef i64 @_ZNK4llvm15SmallVectorBaseImE4sizeEv(ptr noundef nonnull align 8 dereferenceable(24) %5) #23
  %16 = load ptr, ptr %5, align 8
  %17 = icmp eq ptr %16, %6
  br i1 %17, label %_ZN4llvm11SmallStringILj20EED2Ev.exit, label %18

18:                                               ; preds = %4
  call void @free(ptr noundef %16) #23
  br label %_ZN4llvm11SmallStringILj20EED2Ev.exit

_ZN4llvm11SmallStringILj20EED2Ev.exit:            ; preds = %4, %18
  ret void
}